target datalayout = "e-m:e-p270:32:32-p271:32:32-p272:64:64-i64:64-i128:128-f80:128-n8:16:32:64-S128"
target triple = "x86_64-pc-linux-gnu"

%struct.ParseContext_ = type { %struct.TokenData, i32, %union.SourceSpan, %union.SourceSpan, ptr, %struct.Lexer }
%struct.TokenData = type { ptr, i64, %union.anon.86 }
%union.anon.86 = type { %struct.anon.89 }
%struct.anon.89 = type { %struct.Int128_, i8 }
%struct.Int128_ = type { i64, i64 }
%union.SourceSpan = type { i64 }
%struct.Lexer = type { ptr, ptr, ptr, ptr, i32, i32, ptr, ptr, ptr, %struct.TokenData, %union.SourceSpan, i32, i32 }
%struct.Expr_ = type { ptr, %union.SourceSpan, i16, %union.anon.30 }
%union.anon.30 = type { %struct.ExprAnySwitch }
%struct.ExprAnySwitch = type { i8, %union.anon.32 }
%union.anon.32 = type { %struct.anon.33 }
%struct.anon.33 = type { ptr, %union.SourceSpan, ptr }
%struct.anon.0 = type { i16, i8, i8, i32 }

@poisoned_expr = external global ptr, align 8
@.str.22 = private unnamed_addr constant [15 x i8] c"Expected '%s'.\00", align 1

; Function Attrs: nounwind uwtable
define internal i64 @extend_span_with_token(i64 %0, i64 %1) #0 {
  %3 = alloca %union.SourceSpan, align 8
  %4 = alloca %union.SourceSpan, align 8
  %5 = alloca %union.SourceSpan, align 8
  %6 = getelementptr inbounds %union.SourceSpan, ptr %4, i32 0, i32 0
  store i64 %0, ptr %6, align 8
  %7 = getelementptr inbounds %union.SourceSpan, ptr %5, i32 0, i32 0
  store i64 %1, ptr %7, align 8
  %8 = getelementptr inbounds %struct.anon.0, ptr %4, i32 0, i32 3
  %9 = load i32, ptr %8, align 4
  %10 = getelementptr inbounds %struct.anon.0, ptr %5, i32 0, i32 3
  %11 = load i32, ptr %10, align 4
  %12 = icmp ne i32 %9, %11
  br i1 %12, label %13, label %14

13:                                               ; preds = %2
  call void @llvm.memcpy.p0.p0.i64(ptr align 8 %3, ptr align 8 %4, i64 8, i1 false)
  br label %28

14:                                               ; preds = %2
  %15 = getelementptr inbounds %struct.anon.0, ptr %5, i32 0, i32 2
  %16 = load i8, ptr %15, align 1
  %17 = zext i8 %16 to i32
  %18 = getelementptr inbounds %struct.anon.0, ptr %5, i32 0, i32 1
  %19 = load i8, ptr %18, align 2
  %20 = zext i8 %19 to i32
  %21 = add nsw i32 %17, %20
  %22 = getelementptr inbounds %struct.anon.0, ptr %4, i32 0, i32 2
  %23 = load i8, ptr %22, align 1
  %24 = zext i8 %23 to i32
  %25 = sub nsw i32 %21, %24
  %26 = trunc i32 %25 to i8
  %27 = getelementptr inbounds %struct.anon.0, ptr %4, i32 0, i32 1
  store i8 %26, ptr %27, align 2
  call void @llvm.memcpy.p0.p0.i64(ptr align 8 %3, ptr align 8 %4, i64 8, i1 false)
  br label %28

28:                                               ; preds = %14, %13
  %29 = getelementptr inbounds %union.SourceSpan, ptr %3, i32 0, i32 0
  %30 = load i64, ptr %29, align 8
  ret i64 %30
}

; Function Attrs: nounwind uwtable
define dso_local ptr @parse_expr(ptr noundef %0) #0 {
  %2 = alloca ptr, align 8
  store ptr %0, ptr %2, align 8
  %3 = load ptr, ptr %2, align 8
  %4 = call ptr @parse_precedence(ptr noundef %3, i32 noundef 1)
  ret ptr %4
}

; Function Attrs: nounwind uwtable
define internal ptr @parse_ct_eval(ptr noundef %0, ptr noundef %1) #0 {
  %3 = alloca ptr, align 8
  %4 = alloca i32, align 4
  %5 = alloca i1, align 1
  %6 = alloca ptr, align 8
  %7 = alloca i32, align 4
  %8 = alloca ptr, align 8
  %9 = alloca i32, align 4
  %10 = alloca i1, align 1
  %11 = alloca ptr, align 8
  %12 = alloca i32, align 4
  %13 = alloca ptr, align 8
  %14 = alloca ptr, align 8
  %15 = alloca ptr, align 8
  %16 = alloca ptr, align 8
  %17 = alloca ptr, align 8
  %18 = alloca ptr, align 8
  %19 = alloca %union.SourceSpan, align 8
  store ptr %0, ptr %15, align 8
  store ptr %1, ptr %16, align 8
  %20 = load ptr, ptr %15, align 8
  %21 = getelementptr inbounds %struct.ParseContext_, ptr %20, i32 0, i32 2
  %22 = getelementptr inbounds %union.SourceSpan, ptr %21, i32 0, i32 0
  %23 = load i64, ptr %22, align 8
  %24 = call ptr @expr_new(i32 noundef 21, i64 %23)
  store ptr %24, ptr %17, align 8
  %25 = load ptr, ptr %15, align 8
  call void @advance(ptr noundef %25)
  br label %26

26:                                               ; preds = %2
  %27 = load ptr, ptr %15, align 8
  store ptr %27, ptr %6, align 8
  store i32 19, ptr %7, align 4
  %28 = load ptr, ptr %6, align 8
  %29 = load i32, ptr %7, align 4
  store ptr %28, ptr %3, align 8
  store i32 %29, ptr %4, align 4
  %30 = load ptr, ptr %3, align 8
  %31 = getelementptr inbounds %struct.ParseContext_, ptr %30, i32 0, i32 1
  %32 = load i32, ptr %31, align 8
  %33 = load i32, ptr %4, align 4
  %34 = icmp eq i32 %32, %33
  br i1 %34, label %35, label %36

35:                                               ; preds = %26
  store i1 true, ptr %5, align 1
  br label %42

36:                                               ; preds = %26
  %37 = load ptr, ptr %6, align 8
  %38 = getelementptr inbounds %struct.ParseContext_, ptr %37, i32 0, i32 2
  %39 = load i32, ptr %7, align 4
  %40 = call ptr @token_type_to_string(i32 noundef %39) #5
  %41 = load i64, ptr %38, align 8
  call void (i64, ptr, ...) @sema_error_at(i64 %41, ptr noundef @.str.22, ptr noundef %40) #5
  store i1 false, ptr %5, align 1
  br label %42

42:                                               ; preds = %36, %35
  %43 = load i1, ptr %5, align 1
  br i1 %43, label %46, label %44

44:                                               ; preds = %42
  %45 = load ptr, ptr @poisoned_expr, align 8
  store ptr %45, ptr %14, align 8
  br label %107

46:                                               ; preds = %42
  %47 = load ptr, ptr %15, align 8
  call void @advance(ptr noundef %47)
  br label %48

48:                                               ; preds = %46
  %49 = load ptr, ptr %15, align 8
  %50 = call ptr @parse_expr(ptr noundef %49)
  store ptr %50, ptr %18, align 8
  %51 = load ptr, ptr %18, align 8
  store ptr %51, ptr %13, align 8
  %52 = load ptr, ptr %13, align 8
  %53 = icmp eq ptr %52, null
  br i1 %53, label %61, label %54

54:                                               ; preds = %48
  %55 = load ptr, ptr %13, align 8
  %56 = getelementptr inbounds %struct.Expr_, ptr %55, i32 0, i32 2
  %57 = load i16, ptr %56, align 8
  %58 = and i16 %57, 255
  %59 = zext i16 %58 to i32
  %60 = icmp ne i32 %59, 0
  br label %61

61:                                               ; preds = %54, %48
  %62 = phi i1 [ true, %48 ], [ %60, %54 ]
  br i1 %62, label %65, label %63

63:                                               ; preds = %61
  %64 = load ptr, ptr @poisoned_expr, align 8
  store ptr %64, ptr %14, align 8
  br label %107

65:                                               ; preds = %61
  %66 = load ptr, ptr %18, align 8
  %67 = load ptr, ptr %17, align 8
  %68 = getelementptr inbounds %struct.Expr_, ptr %67, i32 0, i32 3
  store ptr %66, ptr %68, align 8
  br label %69

69:                                               ; preds = %65
  %70 = load ptr, ptr %15, align 8
  store ptr %70, ptr %11, align 8
  store i32 26, ptr %12, align 4
  %71 = load ptr, ptr %11, align 8
  %72 = load i32, ptr %12, align 4
  store ptr %71, ptr %8, align 8
  store i32 %72, ptr %9, align 4
  %73 = load ptr, ptr %8, align 8
  %74 = getelementptr inbounds %struct.ParseContext_, ptr %73, i32 0, i32 1
  %75 = load i32, ptr %74, align 8
  %76 = load i32, ptr %9, align 4
  %77 = icmp eq i32 %75, %76
  br i1 %77, label %78, label %79

78:                                               ; preds = %69
  store i1 true, ptr %10, align 1
  br label %85

79:                                               ; preds = %69
  %80 = load ptr, ptr %11, align 8
  %81 = getelementptr inbounds %struct.ParseContext_, ptr %80, i32 0, i32 2
  %82 = load i32, ptr %12, align 4
  %83 = call ptr @token_type_to_string(i32 noundef %82) #5
  %84 = load i64, ptr %81, align 8
  call void (i64, ptr, ...) @sema_error_at(i64 %84, ptr noundef @.str.22, ptr noundef %83) #5
  store i1 false, ptr %10, align 1
  br label %85

85:                                               ; preds = %79, %78
  %86 = load i1, ptr %10, align 1
  br i1 %86, label %89, label %87

87:                                               ; preds = %85
  %88 = load ptr, ptr @poisoned_expr, align 8
  store ptr %88, ptr %14, align 8
  br label %107

89:                                               ; preds = %85
  %90 = load ptr, ptr %15, align 8
  call void @advance(ptr noundef %90)
  br label %91

91:                                               ; preds = %89
  br label %92

92:                                               ; preds = %91
  %93 = load ptr, ptr %17, align 8
  %94 = getelementptr inbounds %struct.Expr_, ptr %93, i32 0, i32 1
  %95 = load ptr, ptr %17, align 8
  %96 = getelementptr inbounds %struct.Expr_, ptr %95, i32 0, i32 1
  %97 = load ptr, ptr %15, align 8
  %98 = getelementptr inbounds %struct.ParseContext_, ptr %97, i32 0, i32 3
  %99 = getelementptr inbounds %union.SourceSpan, ptr %96, i32 0, i32 0
  %100 = load i64, ptr %99, align 8
  %101 = getelementptr inbounds %union.SourceSpan, ptr %98, i32 0, i32 0
  %102 = load i64, ptr %101, align 8
  %103 = call i64 @extend_span_with_token(i64 %100, i64 %102)
  %104 = getelementptr inbounds %union.SourceSpan, ptr %19, i32 0, i32 0
  store i64 %103, ptr %104, align 8
  call void @llvm.memcpy.p0.p0.i64(ptr align 8 %94, ptr align 8 %19, i64 8, i1 false)
  br label %105

105:                                              ; preds = %92
  %106 = load ptr, ptr %17, align 8
  store ptr %106, ptr %14, align 8
  br label %107

107:                                              ; preds = %105, %87, %63, %44
  %108 = load ptr, ptr %14, align 8
  ret ptr %108
}